target datalayout = "e-m:e-p270:32:32-p271:32:32-p272:64:64-i64:64-i128:128-f80:128-n8:16:32:64-S128"
target triple = "x86_64-pc-linux-gnu"

%struct.QTailQLink = type { ptr, ptr }
%struct.BlockDriverInfo = type { i32, i32, i64, i8, i8 }
%struct.GraphLockableMainloop = type {}
%struct.BlockDriverState = type { i32, i8, i8, i8, i8, i8, ptr, ptr, ptr, %struct.anon.1, i8, [4096 x i8], [4096 x i8], [4096 x i8], [16 x i8], ptr, [4096 x i8], %struct.BlockLimits, i32, i32, i32, i32, [32 x i8], %union.anon.2, %union.anon.3, %union.anon.4, i32, [15 x %struct.anon.5], ptr, %struct.anon.6, ptr, ptr, %struct.anon.7, ptr, ptr, i32, ptr, i64, i64, %struct.QemuMutex, %struct.anon.8, %struct.Stat64, i32, i32, i32, i32, i32, i32, %struct.QemuMutex, %struct.anon.9, %struct.CoQueue, i8, i32, i8, %struct.CoMutex, ptr, ptr }
%struct.anon.1 = type { ptr }
%struct.BlockLimits = type { i32, i64, i32, i64, i32, i32, i32, i64, i32, i64, i64, i32, i8, i32, i32, i32, i32, i32, i32, i32 }
%union.anon.2 = type { %struct.QTailQLink }
%union.anon.3 = type { %struct.QTailQLink }
%union.anon.4 = type { %struct.QTailQLink }
%struct.anon.5 = type { ptr }
%struct.anon.6 = type { ptr }
%struct.anon.7 = type { ptr }
%struct.anon.8 = type { ptr }
%struct.Stat64 = type { i64 }
%struct.QemuMutex = type { %union.pthread_mutex_t, i8 }
%union.pthread_mutex_t = type { %struct.__pthread_mutex_s }
%struct.__pthread_mutex_s = type { i32, i32, i32, i32, i32, i16, i16, %struct.__pthread_internal_list }
%struct.__pthread_internal_list = type { ptr, ptr }
%struct.anon.9 = type { ptr }
%struct.CoQueue = type { %struct.anon.10 }
%struct.anon.10 = type { ptr, ptr }
%struct.CoMutex = type { i32, ptr, %struct.anon.11, %struct.anon.11, i32, i32, ptr }
%struct.anon.11 = type { ptr }
%struct.BlockDriver = type { ptr, i32, i8, i8, i8, i8, i8, i8, ptr, ptr, ptr, ptr, ptr, ptr, ptr, ptr, ptr, ptr, ptr, ptr, ptr, ptr, ptr, ptr, ptr, ptr, ptr, ptr, ptr, ptr, ptr, ptr, ptr, ptr, ptr, ptr, ptr, ptr, ptr, ptr, ptr, ptr, ptr, ptr, ptr, ptr, ptr, ptr, ptr, ptr, ptr, ptr, ptr, ptr, ptr, ptr, ptr, ptr, ptr, ptr, %struct.anon.12, ptr, ptr, ptr, ptr, ptr, ptr, ptr, ptr, ptr, ptr, ptr, ptr, ptr, ptr, ptr, ptr, ptr, ptr, ptr, ptr, ptr, ptr, ptr, ptr, ptr, ptr, ptr, ptr, ptr, ptr, ptr, ptr, ptr, ptr, ptr, ptr, ptr, ptr, ptr, ptr, ptr, ptr, ptr, ptr, ptr, ptr, ptr, ptr, ptr }
%struct.anon.12 = type { ptr, ptr }

@.str.1 = private unnamed_addr constant [23 x i8] c"../qemu/qemu-io-cmds.c\00", align 1
@.str.150 = private unnamed_addr constant [22 x i8] c"qemu_in_main_thread()\00", align 1
@__PRETTY_FUNCTION__.info_f = private unnamed_addr constant [41 x i8] c"int info_f(BlockBackend *, int, char **)\00", align 1
@.str.151 = private unnamed_addr constant [17 x i8] c"format name: %s\0A\00", align 1
@.str.152 = private unnamed_addr constant [18 x i8] c"cluster size: %s\0A\00", align 1
@.str.153 = private unnamed_addr constant [21 x i8] c"vm state offset: %s\0A\00", align 1
@.str.154 = private unnamed_addr constant [30 x i8] c"Format specific information:\0A\00", align 1

; Function Attrs: inlinehint nounwind sspstrong uwtable
define internal void @graph_lockable_auto_unlock_mainloop(ptr noundef %0) #9 {
  %2 = alloca ptr, align 8
  store ptr %0, ptr %2, align 8
  call void @bdrv_graph_rdunlock_main_loop()
  ret void
}

; Function Attrs: inlinehint nounwind sspstrong uwtable
define internal void @glib_autoptr_clear_GraphLockableMainloop(ptr noundef %0) #9 {
  %2 = alloca ptr, align 8
  store ptr %0, ptr %2, align 8
  %3 = load ptr, ptr %2, align 8
  %4 = icmp ne ptr %3, null
  br i1 %4, label %5, label %7

5:                                                ; preds = %1
  %6 = load ptr, ptr %2, align 8
  call void @graph_lockable_auto_unlock_mainloop(ptr noundef %6)
  br label %7

7:                                                ; preds = %5, %1
  ret void
}

; Function Attrs: inlinehint nounwind sspstrong uwtable
define internal void @glib_autoptr_cleanup_GraphLockableMainloop(ptr noundef %0) #9 {
  %2 = alloca ptr, align 8
  store ptr %0, ptr %2, align 8
  %3 = load ptr, ptr %2, align 8
  %4 = load ptr, ptr %3, align 8
  call void @glib_autoptr_clear_GraphLockableMainloop(ptr noundef %4)
  ret void
}

; Function Attrs: inlinehint nounwind sspstrong uwtable
define internal ptr @graph_lockable_auto_lock_mainloop(ptr noundef %0) #9 {
  %2 = alloca ptr, align 8
  store ptr %0, ptr %2, align 8
  call void @bdrv_graph_rdlock_main_loop()
  %3 = load ptr, ptr %2, align 8
  ret ptr %3
}

; Function Attrs: nounwind sspstrong uwtable
define internal i32 @info_f(ptr noundef %0, i32 noundef %1, ptr noundef %2) #0 {
  %4 = alloca i32, align 4
  %5 = alloca ptr, align 8
  %6 = alloca i32, align 4
  %7 = alloca ptr, align 8
  %8 = alloca ptr, align 8
  %9 = alloca %struct.BlockDriverInfo, align 8
  %10 = alloca ptr, align 8
  %11 = alloca ptr, align 8
  %12 = alloca [64 x i8], align 16
  %13 = alloca [64 x i8], align 16
  %14 = alloca i32, align 4
  %15 = alloca ptr, align 8
  %16 = alloca %struct.GraphLockableMainloop, align 1
  %17 = alloca i32, align 4
  store ptr %0, ptr %5, align 8
  store i32 %1, ptr %6, align 4
  store ptr %2, ptr %7, align 8
  call void @llvm.lifetime.start.p0(i64 8, ptr %8) #18
  %18 = load ptr, ptr %5, align 8
  %19 = call ptr @blk_bs(ptr noundef %18)
  store ptr %19, ptr %8, align 8
  call void @llvm.lifetime.start.p0(i64 24, ptr %9) #18
  call void @llvm.memset.p0.i64(ptr align 8 %9, i8 0, i64 24, i1 false), !annotation !4
  call void @llvm.lifetime.start.p0(i64 8, ptr %10) #18
  store ptr null, ptr %10, align 8, !annotation !4
  call void @llvm.lifetime.start.p0(i64 8, ptr %11) #18
  store ptr null, ptr %11, align 8
  call void @llvm.lifetime.start.p0(i64 64, ptr %12) #18
  call void @llvm.memset.p0.i64(ptr align 16 %12, i8 0, i64 64, i1 false), !annotation !4
  call void @llvm.lifetime.start.p0(i64 64, ptr %13) #18
  call void @llvm.memset.p0.i64(ptr align 16 %13, i8 0, i64 64, i1 false), !annotation !4
  call void @llvm.lifetime.start.p0(i64 4, ptr %14) #18
  store i32 0, ptr %14, align 4, !annotation !4
  br label %20

20:                                               ; preds = %3
  %21 = call zeroext i1 @qemu_in_main_thread()
  br i1 %21, label %22, label %23

22:                                               ; preds = %20
  br label %24

23:                                               ; preds = %20
  call void @__assert_fail(ptr noundef @.str.150, ptr noundef @.str.1, i32 noundef 2086, ptr noundef @__PRETTY_FUNCTION__.info_f) #17
  unreachable

24:                                               ; preds = %22
  br label %25

25:                                               ; preds = %24
  br label %26

26:                                               ; preds = %25
  call void @llvm.lifetime.start.p0(i64 8, ptr %15) #18
  %27 = call ptr @graph_lockable_auto_lock_mainloop(ptr noundef %16)
  store ptr %27, ptr %15, align 8
  %28 = load ptr, ptr %8, align 8
  %29 = getelementptr inbounds nuw %struct.BlockDriverState, ptr %28, i32 0, i32 6
  %30 = load ptr, ptr %29, align 8
  %31 = icmp ne ptr %30, null
  br i1 %31, label %32, label %46

32:                                               ; preds = %26
  %33 = load ptr, ptr %8, align 8
  %34 = getelementptr inbounds nuw %struct.BlockDriverState, ptr %33, i32 0, i32 6
  %35 = load ptr, ptr %34, align 8
  %36 = getelementptr inbounds nuw %struct.BlockDriver, ptr %35, i32 0, i32 0
  %37 = load ptr, ptr %36, align 8
  %38 = icmp ne ptr %37, null
  br i1 %38, label %39, label %46

39:                                               ; preds = %32
  %40 = load ptr, ptr %8, align 8
  %41 = getelementptr inbounds nuw %struct.BlockDriverState, ptr %40, i32 0, i32 6
  %42 = load ptr, ptr %41, align 8
  %43 = getelementptr inbounds nuw %struct.BlockDriver, ptr %42, i32 0, i32 0
  %44 = load ptr, ptr %43, align 8
  %45 = call i32 (i32, ptr, ...) @__printf_chk(i32 noundef 1, ptr noundef @.str.151, ptr noundef %44)
  br label %46

46:                                               ; preds = %39, %32, %26
  %47 = load ptr, ptr %8, align 8
  %48 = getelementptr inbounds nuw %struct.BlockDriverState, ptr %47, i32 0, i32 6
  %49 = load ptr, ptr %48, align 8
  %50 = icmp ne ptr %49, null
  br i1 %50, label %51, label %65

51:                                               ; preds = %46
  %52 = load ptr, ptr %8, align 8
  %53 = getelementptr inbounds nuw %struct.BlockDriverState, ptr %52, i32 0, i32 6
  %54 = load ptr, ptr %53, align 8
  %55 = getelementptr inbounds nuw %struct.BlockDriver, ptr %54, i32 0, i32 8
  %56 = load ptr, ptr %55, align 8
  %57 = icmp ne ptr %56, null
  br i1 %57, label %58, label %65

58:                                               ; preds = %51
  %59 = load ptr, ptr %8, align 8
  %60 = getelementptr inbounds nuw %struct.BlockDriverState, ptr %59, i32 0, i32 6
  %61 = load ptr, ptr %60, align 8
  %62 = getelementptr inbounds nuw %struct.BlockDriver, ptr %61, i32 0, i32 8
  %63 = load ptr, ptr %62, align 8
  %64 = call i32 (i32, ptr, ...) @__printf_chk(i32 noundef 1, ptr noundef @.str.151, ptr noundef %63)
  br label %65

65:                                               ; preds = %58, %51, %46
  %66 = load ptr, ptr %8, align 8
  %67 = call i32 @bdrv_get_info(ptr noundef %66, ptr noundef %9)
  store i32 %67, ptr %14, align 4
  %68 = load i32, ptr %14, align 4
  %69 = icmp ne i32 %68, 0
  br i1 %69, label %70, label %72

70:                                               ; preds = %65
  %71 = load i32, ptr %14, align 4
  store i32 %71, ptr %4, align 4
  store i32 1, ptr %17, align 4
  br label %98

72:                                               ; preds = %65
  %73 = getelementptr inbounds nuw %struct.BlockDriverInfo, ptr %9, i32 0, i32 0
  %74 = load i32, ptr %73, align 8
  %75 = sitofp i32 %74 to double
  %76 = getelementptr inbounds [64 x i8], ptr %12, i64 0, i64 0
  call void @cvtstr(double noundef %75, ptr noundef %76, i64 noundef 64)
  %77 = getelementptr inbounds nuw %struct.BlockDriverInfo, ptr %9, i32 0, i32 2
  %78 = load i64, ptr %77, align 8
  %79 = sitofp i64 %78 to double
  %80 = getelementptr inbounds [64 x i8], ptr %13, i64 0, i64 0
  call void @cvtstr(double noundef %79, ptr noundef %80, i64 noundef 64)
  %81 = getelementptr inbounds [64 x i8], ptr %12, i64 0, i64 0
  %82 = call i32 (i32, ptr, ...) @__printf_chk(i32 noundef 1, ptr noundef @.str.152, ptr noundef %81)
  %83 = getelementptr inbounds [64 x i8], ptr %13, i64 0, i64 0
  %84 = call i32 (i32, ptr, ...) @__printf_chk(i32 noundef 1, ptr noundef @.str.153, ptr noundef %83)
  %85 = load ptr, ptr %8, align 8
  %86 = call ptr @bdrv_get_specific_info(ptr noundef %85, ptr noundef %11)
  store ptr %86, ptr %10, align 8
  %87 = load ptr, ptr %11, align 8
  %88 = icmp ne ptr %87, null
  br i1 %88, label %89, label %91

89:                                               ; preds = %72
  %90 = load ptr, ptr %11, align 8
  call void @error_report_err(ptr noundef %90)
  store i32 -5, ptr %4, align 4
  store i32 1, ptr %17, align 4
  br label %98

91:                                               ; preds = %72
  %92 = load ptr, ptr %10, align 8
  %93 = icmp ne ptr %92, null
  br i1 %93, label %94, label %97

94:                                               ; preds = %91
  %95 = load ptr, ptr %10, align 8
  call void @bdrv_image_info_specific_dump(ptr noundef %95, ptr noundef @.str.154, i32 noundef 0)
  %96 = load ptr, ptr %10, align 8
  call void @qapi_free_ImageInfoSpecific(ptr noundef %96)
  br label %97

97:                                               ; preds = %94, %91
  store i32 0, ptr %4, align 4
  store i32 1, ptr %17, align 4
  br label %98

98:                                               ; preds = %97, %89, %70
  call void @glib_autoptr_cleanup_GraphLockableMainloop(ptr noundef %15)
  call void @llvm.lifetime.end.p0(i64 8, ptr %15) #18
  call void @llvm.lifetime.end.p0(i64 4, ptr %14) #18
  call void @llvm.lifetime.end.p0(i64 64, ptr %13) #18
  call void @llvm.lifetime.end.p0(i64 64, ptr %12) #18
  call void @llvm.lifetime.end.p0(i64 8, ptr %11) #18
  call void @llvm.lifetime.end.p0(i64 8, ptr %10) #18
  call void @llvm.lifetime.end.p0(i64 24, ptr %9) #18
  call void @llvm.lifetime.end.p0(i64 8, ptr %8) #18
  %99 = load i32, ptr %4, align 4
  ret i32 %99
}