; Function Attrs: nounwind sspstrong uwtable
define internal i32 @info_f(ptr noundef %0, i32 %1, ptr readnone captures(none) %2) #0 {
  %4 = alloca %struct.BlockDriverInfo, align 8
  %5 = alloca ptr, align 8
  %6 = alloca [64 x i8], align 16
  %7 = alloca [64 x i8], align 16
  %8 = tail call ptr @blk_bs(ptr noundef %0) #26
  call void @llvm.lifetime.start.p0(i64 24, ptr nonnull %4) #26
  call void @llvm.lifetime.start.p0(i64 8, ptr nonnull %5) #26
  store ptr null, ptr %5, align 8
  call void @llvm.lifetime.start.p0(i64 64, ptr nonnull %6) #26
  call void @llvm.lifetime.start.p0(i64 64, ptr nonnull %7) #26
  %9 = tail call zeroext i1 @qemu_in_main_thread() #26
  br i1 %9, label %11, label %10

10:                                               ; preds = %3
  tail call void @__assert_fail(ptr noundef nonnull @.str.150, ptr noundef nonnull @.str.1, i32 noundef 2086, ptr noundef nonnull @__PRETTY_FUNCTION__.info_f) #25
  unreachable

11:                                               ; preds = %3
  call void @llvm.memset.p0.i64(ptr noundef nonnull align 8 dereferenceable(24) %4, i8 0, i64 24, i1 false), !annotation !8
  call void @llvm.memset.p0.i64(ptr noundef nonnull align 16 dereferenceable(64) %6, i8 0, i64 64, i1 false), !annotation !8
  call void @llvm.memset.p0.i64(ptr noundef nonnull align 16 dereferenceable(64) %7, i8 0, i64 64, i1 false), !annotation !8
  tail call void @bdrv_graph_rdlock_main_loop() #26
  %12 = getelementptr inbounds nuw i8, ptr %8, i64 16
  %13 = load ptr, ptr %12, align 8
  %.not = icmp eq ptr %13, null
  br i1 %.not, label %.thread, label %14

14:                                               ; preds = %11
  %15 = load ptr, ptr %13, align 8
  %.not21 = icmp eq ptr %15, null
  br i1 %.not21, label %.thread28, label %16

16:                                               ; preds = %14
  %17 = tail call i32 (i32, ptr, ...) @__printf_chk(i32 noundef 1, ptr noundef nonnull @.str.151, ptr noundef nonnull %15) #26
  %.pr = load ptr, ptr %12, align 8
  %.not22 = icmp eq ptr %.pr, null
  br i1 %.not22, label %.thread, label %.thread28

.thread28:                                        ; preds = %14, %16
  %18 = phi ptr [ %.pr, %16 ], [ %13, %14 ]
  %19 = getelementptr inbounds nuw i8, ptr %18, i64 24
  %20 = load ptr, ptr %19, align 8
  %.not23 = icmp eq ptr %20, null
  br i1 %.not23, label %.thread, label %21

21:                                               ; preds = %.thread28
  %22 = tail call i32 (i32, ptr, ...) @__printf_chk(i32 noundef 1, ptr noundef nonnull @.str.151, ptr noundef nonnull %20) #26
  br label %.thread

.thread:                                          ; preds = %11, %21, %.thread28, %16
  %23 = call i32 @bdrv_get_info(ptr noundef nonnull %8, ptr noundef nonnull %4) #26
  %.not24 = icmp eq i32 %23, 0
  br i1 %.not24, label %24, label %glib_autoptr_cleanup_GraphLockableMainloop.exit

24:                                               ; preds = %.thread
  %25 = load i32, ptr %4, align 8
  %26 = sitofp i32 %25 to double
  call fastcc void @cvtstr(double noundef %26, ptr noundef %6)
  %27 = getelementptr inbounds nuw i8, ptr %4, i64 8
  %28 = load i64, ptr %27, align 8
  %29 = sitofp i64 %28 to double
  call fastcc void @cvtstr(double noundef %29, ptr noundef %7)
  %30 = call i32 (i32, ptr, ...) @__printf_chk(i32 noundef 1, ptr noundef nonnull @.str.152, ptr noundef nonnull %6) #26
  %31 = call i32 (i32, ptr, ...) @__printf_chk(i32 noundef 1, ptr noundef nonnull @.str.153, ptr noundef nonnull %7) #26
  %32 = call ptr @bdrv_get_specific_info(ptr noundef nonnull %8, ptr noundef nonnull %5) #26
  %33 = load ptr, ptr %5, align 8
  %.not25 = icmp eq ptr %33, null
  br i1 %.not25, label %35, label %34

34:                                               ; preds = %24
  call void @error_report_err(ptr noundef nonnull %33) #26
  br label %glib_autoptr_cleanup_GraphLockableMainloop.exit

35:                                               ; preds = %24
  %.not26 = icmp eq ptr %32, null
  br i1 %.not26, label %glib_autoptr_cleanup_GraphLockableMainloop.exit, label %36

36:                                               ; preds = %35
  call void @bdrv_image_info_specific_dump(ptr noundef nonnull %32, ptr noundef nonnull @.str.154, i32 noundef 0) #26
  call void @qapi_free_ImageInfoSpecific(ptr noundef nonnull %32) #26
  br label %glib_autoptr_cleanup_GraphLockableMainloop.exit

glib_autoptr_cleanup_GraphLockableMainloop.exit:  ; preds = %35, %36, %.thread, %34
  %.0 = phi i32 [ -5, %34 ], [ %23, %.thread ], [ 0, %36 ], [ 0, %35 ]
  call void @bdrv_graph_rdunlock_main_loop() #26
  call void @llvm.lifetime.end.p0(i64 64, ptr nonnull %7) #26
  call void @llvm.lifetime.end.p0(i64 64, ptr nonnull %6) #26
  call void @llvm.lifetime.end.p0(i64 8, ptr nonnull %5) #26
  call void @llvm.lifetime.end.p0(i64 24, ptr nonnull %4) #26
  ret i32 %.0
}